; Function Attrs: mustprogress uwtable
define dso_local void @_ZN23cmCursesLongMessageForm13UpdateContentERKNSt7__cxx1112basic_stringIcSt11char_traitsIcESaIcEEES7_(ptr noundef nonnull align 8 dereferenceable(104) %0, ptr noundef nonnull align 8 dereferenceable(32) %1, ptr noundef nonnull align 8 dereferenceable(32) %2) local_unnamed_addr #0 align 2 {
  %4 = getelementptr inbounds i8, ptr %0, i64 48
  %5 = tail call noundef nonnull align 8 dereferenceable(32) ptr @_ZNSt7__cxx1112basic_stringIcSt11char_traitsIcESaIcEEaSERKS4_(ptr noundef nonnull align 8 dereferenceable(32) %4, ptr noundef nonnull align 8 dereferenceable(32) %2)
  %6 = tail call noundef zeroext i1 @_ZNKSt7__cxx1112basic_stringIcSt11char_traitsIcESaIcEE5emptyEv(ptr noundef nonnull align 8 dereferenceable(32) %1) #13
  br i1 %6, label %45, label %7

7:                                                ; preds = %3
  %8 = getelementptr inbounds i8, ptr %0, i64 16
  %9 = tail call noundef i64 @_ZNKSt7__cxx1112basic_stringIcSt11char_traitsIcESaIcEE4sizeEv(ptr noundef nonnull align 8 dereferenceable(32) %8) #13
  %10 = icmp ult i64 %9, 60000
  br i1 %10, label %11, label %45

11:                                               ; preds = %7
  tail call void @_ZNSt7__cxx1112basic_stringIcSt11char_traitsIcESaIcEE9push_backEc(ptr noundef nonnull align 8 dereferenceable(32) %8, i8 noundef signext 10)
  %12 = tail call noundef nonnull align 8 dereferenceable(32) ptr @_ZNSt7__cxx1112basic_stringIcSt11char_traitsIcESaIcEE6appendERKS4_(ptr noundef nonnull align 8 dereferenceable(32) %8, ptr noundef nonnull align 8 dereferenceable(32) %1)
  %13 = getelementptr inbounds i8, ptr %0, i64 8
  %14 = load ptr, ptr %13, align 8
  %15 = tail call i32 @form_driver(ptr noundef %14, i32 noundef 530)
  %16 = load ptr, ptr %13, align 8
  %17 = tail call i32 @form_driver(ptr noundef %16, i32 noundef 536)
  %18 = tail call noundef ptr @_ZNKSt7__cxx1112basic_stringIcSt11char_traitsIcESaIcEE5c_strEv(ptr noundef nonnull align 8 dereferenceable(32) %1) #13
  %19 = load i8, ptr %18, align 1
  %.not12.i = icmp eq i8 %19, 0
  br i1 %.not12.i, label %_ZNK23cmCursesLongMessageForm11DrawMessageEPKc.exit, label %.lr.ph.i

.lr.ph.i:                                         ; preds = %11
  %invariant.gep.i = getelementptr i8, ptr %18, i64 1
  br label %20

20:                                               ; preds = %34, %.lr.ph.i
  %indvars.iv.i = phi i64 [ 0, %.lr.ph.i ], [ %indvars.iv.next.i, %34 ]
  %21 = phi i8 [ %19, %.lr.ph.i ], [ %36, %34 ]
  %22 = icmp eq i8 %21, 10
  br i1 %22, label %23, label %30

23:                                               ; preds = %20
  %gep.i = getelementptr i8, ptr %invariant.gep.i, i64 %indvars.iv.i
  %24 = load i8, ptr %gep.i, align 1
  %.not.i = icmp eq i8 %24, 0
  br i1 %.not.i, label %30, label %25

25:                                               ; preds = %23
  %26 = load ptr, ptr %13, align 8
  %27 = tail call i32 @form_driver(ptr noundef %26, i32 noundef 530)
  %28 = load ptr, ptr %13, align 8
  %29 = tail call i32 @form_driver(ptr noundef %28, i32 noundef 536)
  br label %34

30:                                               ; preds = %23, %20
  %31 = load ptr, ptr %13, align 8
  %32 = sext i8 %21 to i32
  %33 = tail call i32 @form_driver(ptr noundef %31, i32 noundef %32)
  br label %34

34:                                               ; preds = %30, %25
  %indvars.iv.next.i = add nuw nsw i64 %indvars.iv.i, 1
  %35 = getelementptr inbounds i8, ptr %18, i64 %indvars.iv.next.i
  %36 = load i8, ptr %35, align 1
  %37 = icmp ne i8 %36, 0
  %38 = icmp ult i64 %indvars.iv.i, 59999
  %39 = and i1 %38, %37
  br i1 %39, label %20, label %_ZNK23cmCursesLongMessageForm11DrawMessageEPKc.exit, !llvm.loop !5

_ZNK23cmCursesLongMessageForm11DrawMessageEPKc.exit: ; preds = %34, %11
  %40 = getelementptr inbounds i8, ptr %0, i64 80
  %41 = load i32, ptr %40, align 8
  %42 = icmp eq i32 %41, 1
  %43 = load ptr, ptr %13, align 8
  %..i = select i1 %42, i32 535, i32 534
  %44 = tail call i32 @form_driver(ptr noundef %43, i32 noundef %..i)
  br label %45

45:                                               ; preds = %_ZNK23cmCursesLongMessageForm11DrawMessageEPKc.exit, %7, %3
  %46 = load ptr, ptr %0, align 8
  %47 = getelementptr inbounds i8, ptr %46, i64 32
  %48 = load ptr, ptr %47, align 8
  tail call void %48(ptr noundef nonnull align 8 dereferenceable(104) %0)
  %49 = load ptr, ptr @stdscr, align 8
  %.not = icmp eq ptr %49, null
  br i1 %.not, label %55, label %50

50:                                               ; preds = %45
  %51 = getelementptr inbounds i8, ptr %49, i64 4
  %52 = load i16, ptr %51, align 4
  %53 = sext i16 %52 to i32
  %54 = add nsw i32 %53, 1
  br label %55

55:                                               ; preds = %45, %50
  %56 = phi i32 [ %54, %50 ], [ -1, %45 ]
  %57 = tail call i32 @wtouchln(ptr noundef %49, i32 noundef 0, i32 noundef %56, i32 noundef 1)
  %58 = tail call i32 @refresh()
  ret void
}